target datalayout = "e-m:e-p270:32:32-p271:32:32-p272:64:64-i64:64-i128:128-f80:128-n8:16:32:64-S128"
target triple = "x86_64-pc-linux-gnu"

%struct.mbedtls_ecp_group = type { i32, %struct.mbedtls_mpi, %struct.mbedtls_mpi, %struct.mbedtls_mpi, %struct.mbedtls_ecp_point, %struct.mbedtls_mpi, i64, i64, i32, ptr, ptr, ptr, ptr, ptr, i64 }
%struct.mbedtls_ecp_point = type { %struct.mbedtls_mpi, %struct.mbedtls_mpi, %struct.mbedtls_mpi }
%struct.mbedtls_mpi = type { ptr, i16, i16 }

@mul_count = internal global i64 0, align 8

; Function Attrs: nounwind uwtable
define internal i32 @ecp_modp(ptr noundef %0, ptr noundef %1) #0 {
  %3 = alloca i32, align 4
  %4 = alloca ptr, align 8
  %5 = alloca ptr, align 8
  %6 = alloca i32, align 4
  %7 = alloca i32, align 4
  store ptr %0, ptr %4, align 8, !tbaa !50
  store ptr %1, ptr %5, align 8, !tbaa !25
  call void @llvm.lifetime.start.p0(i64 4, ptr %6) #11
  store i32 -110, ptr %6, align 4, !tbaa !3
  %8 = load ptr, ptr %5, align 8, !tbaa !25
  %9 = getelementptr inbounds nuw %struct.mbedtls_ecp_group, ptr %8, i32 0, i32 9
  %10 = load ptr, ptr %9, align 8, !tbaa !39
  %11 = icmp eq ptr %10, null
  br i1 %11, label %12, label %18

12:                                               ; preds = %2
  %13 = load ptr, ptr %4, align 8, !tbaa !50
  %14 = load ptr, ptr %4, align 8, !tbaa !50
  %15 = load ptr, ptr %5, align 8, !tbaa !25
  %16 = getelementptr inbounds nuw %struct.mbedtls_ecp_group, ptr %15, i32 0, i32 1
  %17 = call i32 @mbedtls_mpi_mod_mpi(ptr noundef %13, ptr noundef %14, ptr noundef %16)
  store i32 %17, ptr %3, align 4
  store i32 1, ptr %7, align 4
  br label %95

18:                                               ; preds = %2
  %19 = load ptr, ptr %4, align 8, !tbaa !50
  %20 = getelementptr inbounds nuw %struct.mbedtls_mpi, ptr %19, i32 0, i32 1
  %21 = load i16, ptr %20, align 8, !tbaa !66
  %22 = sext i16 %21 to i32
  %23 = icmp slt i32 %22, 0
  br i1 %23, label %24, label %28

24:                                               ; preds = %18
  %25 = load ptr, ptr %4, align 8, !tbaa !50
  %26 = call i32 @mbedtls_mpi_cmp_int(ptr noundef %25, i64 noundef 0)
  %27 = icmp ne i32 %26, 0
  br i1 %27, label %36, label %28

28:                                               ; preds = %24, %18
  %29 = load ptr, ptr %4, align 8, !tbaa !50
  %30 = call i64 @mbedtls_mpi_bitlen(ptr noundef %29)
  %31 = load ptr, ptr %5, align 8, !tbaa !25
  %32 = getelementptr inbounds nuw %struct.mbedtls_ecp_group, ptr %31, i32 0, i32 6
  %33 = load i64, ptr %32, align 8, !tbaa !36
  %34 = mul i64 2, %33
  %35 = icmp ugt i64 %30, %34
  br i1 %35, label %36, label %37

36:                                               ; preds = %28, %24
  store i32 -20352, ptr %3, align 4
  store i32 1, ptr %7, align 4
  br label %95

37:                                               ; preds = %28
  br label %38

38:                                               ; preds = %37
  %39 = load ptr, ptr %5, align 8, !tbaa !25
  %40 = getelementptr inbounds nuw %struct.mbedtls_ecp_group, ptr %39, i32 0, i32 9
  %41 = load ptr, ptr %40, align 8, !tbaa !39
  %42 = load ptr, ptr %4, align 8, !tbaa !50
  %43 = call i32 %41(ptr noundef %42)
  store i32 %43, ptr %6, align 4, !tbaa !3
  %44 = icmp ne i32 %43, 0
  br i1 %44, label %45, label %46

45:                                               ; preds = %38
  br label %93

46:                                               ; preds = %38
  br label %47

47:                                               ; preds = %46
  br label %48

48:                                               ; preds = %47
  br label %49

49:                                               ; preds = %72, %48
  %50 = load ptr, ptr %4, align 8, !tbaa !50
  %51 = getelementptr inbounds nuw %struct.mbedtls_mpi, ptr %50, i32 0, i32 1
  %52 = load i16, ptr %51, align 8, !tbaa !66
  %53 = sext i16 %52 to i32
  %54 = icmp slt i32 %53, 0
  br i1 %54, label %55, label %59

55:                                               ; preds = %49
  %56 = load ptr, ptr %4, align 8, !tbaa !50
  %57 = call i32 @mbedtls_mpi_cmp_int(ptr noundef %56, i64 noundef 0)
  %58 = icmp ne i32 %57, 0
  br label %59

59:                                               ; preds = %55, %49
  %60 = phi i1 [ false, %49 ], [ %58, %55 ]
  br i1 %60, label %61, label %73

61:                                               ; preds = %59
  br label %62

62:                                               ; preds = %61
  %63 = load ptr, ptr %4, align 8, !tbaa !50
  %64 = load ptr, ptr %4, align 8, !tbaa !50
  %65 = load ptr, ptr %5, align 8, !tbaa !25
  %66 = getelementptr inbounds nuw %struct.mbedtls_ecp_group, ptr %65, i32 0, i32 1
  %67 = call i32 @mbedtls_mpi_add_mpi(ptr noundef %63, ptr noundef %64, ptr noundef %66)
  store i32 %67, ptr %6, align 4, !tbaa !3
  %68 = icmp ne i32 %67, 0
  br i1 %68, label %69, label %70

69:                                               ; preds = %62
  br label %93

70:                                               ; preds = %62
  br label %71

71:                                               ; preds = %70
  br label %72

72:                                               ; preds = %71
  br label %49, !llvm.loop !69

73:                                               ; preds = %59
  br label %74

74:                                               ; preds = %91, %73
  %75 = load ptr, ptr %4, align 8, !tbaa !50
  %76 = load ptr, ptr %5, align 8, !tbaa !25
  %77 = getelementptr inbounds nuw %struct.mbedtls_ecp_group, ptr %76, i32 0, i32 1
  %78 = call i32 @mbedtls_mpi_cmp_mpi(ptr noundef %75, ptr noundef %77)
  %79 = icmp sge i32 %78, 0
  br i1 %79, label %80, label %92

80:                                               ; preds = %74
  br label %81

81:                                               ; preds = %80
  %82 = load ptr, ptr %4, align 8, !tbaa !50
  %83 = load ptr, ptr %4, align 8, !tbaa !50
  %84 = load ptr, ptr %5, align 8, !tbaa !25
  %85 = getelementptr inbounds nuw %struct.mbedtls_ecp_group, ptr %84, i32 0, i32 1
  %86 = call i32 @mbedtls_mpi_sub_abs(ptr noundef %82, ptr noundef %83, ptr noundef %85)
  store i32 %86, ptr %6, align 4, !tbaa !3
  %87 = icmp ne i32 %86, 0
  br i1 %87, label %88, label %89

88:                                               ; preds = %81
  br label %93

89:                                               ; preds = %81
  br label %90

90:                                               ; preds = %89
  br label %91

91:                                               ; preds = %90
  br label %74, !llvm.loop !70

92:                                               ; preds = %74
  br label %93

93:                                               ; preds = %92, %88, %69, %45
  %94 = load i32, ptr %6, align 4, !tbaa !3
  store i32 %94, ptr %3, align 4
  store i32 1, ptr %7, align 4
  br label %95

95:                                               ; preds = %93, %36, %12
  call void @llvm.lifetime.end.p0(i64 4, ptr %6) #11
  %96 = load i32, ptr %3, align 4
  ret i32 %96
}

; Function Attrs: inlinehint nounwind uwtable
define internal i32 @mbedtls_mpi_mul_mod(ptr noundef %0, ptr noundef %1, ptr noundef %2, ptr noundef %3) #8 {
  %5 = alloca ptr, align 8
  %6 = alloca ptr, align 8
  %7 = alloca ptr, align 8
  %8 = alloca ptr, align 8
  %9 = alloca i32, align 4
  store ptr %0, ptr %5, align 8, !tbaa !25
  store ptr %1, ptr %6, align 8, !tbaa !50
  store ptr %2, ptr %7, align 8, !tbaa !50
  store ptr %3, ptr %8, align 8, !tbaa !50
  call void @llvm.lifetime.start.p0(i64 4, ptr %9) #11
  store i32 -110, ptr %9, align 4, !tbaa !3
  br label %10

10:                                               ; preds = %4
  %11 = load ptr, ptr %6, align 8, !tbaa !50
  %12 = load ptr, ptr %7, align 8, !tbaa !50
  %13 = load ptr, ptr %8, align 8, !tbaa !50
  %14 = call i32 @mbedtls_mpi_mul_mpi(ptr noundef %11, ptr noundef %12, ptr noundef %13)
  store i32 %14, ptr %9, align 4, !tbaa !3
  %15 = icmp ne i32 %14, 0
  br i1 %15, label %16, label %17

16:                                               ; preds = %10
  br label %34

17:                                               ; preds = %10
  br label %18

18:                                               ; preds = %17
  br label %19

19:                                               ; preds = %18
  br label %20

20:                                               ; preds = %19
  br label %21

21:                                               ; preds = %20
  %22 = load ptr, ptr %6, align 8, !tbaa !50
  %23 = load ptr, ptr %5, align 8, !tbaa !25
  %24 = call i32 @ecp_modp(ptr noundef %22, ptr noundef %23)
  store i32 %24, ptr %9, align 4, !tbaa !3
  %25 = icmp ne i32 %24, 0
  br i1 %25, label %26, label %27

26:                                               ; preds = %21
  br label %34

27:                                               ; preds = %21
  br label %28

28:                                               ; preds = %27
  br label %29

29:                                               ; preds = %28
  %30 = load i64, ptr @mul_count, align 8, !tbaa !7
  %31 = add i64 %30, 1
  store i64 %31, ptr @mul_count, align 8, !tbaa !7
  br label %32

32:                                               ; preds = %29
  br label %33

33:                                               ; preds = %32
  br label %34

34:                                               ; preds = %33, %26, %16
  %35 = load i32, ptr %9, align 4, !tbaa !3
  call void @llvm.lifetime.end.p0(i64 4, ptr %9) #11
  ret i32 %35
}