; Function Attrs: inlinehint nounwind uwtable
define internal fastcc i32 @mbedtls_mpi_mul_mod(ptr noundef %0, ptr noundef %1, ptr noundef %2, ptr noundef %3) unnamed_addr #15 {
  %5 = tail call i32 @mbedtls_mpi_mul_mpi(ptr noundef %1, ptr noundef %2, ptr noundef %3) #21
  %.not = icmp eq i32 %5, 0
  br i1 %.not, label %6, label %ecp_modp.exit.thread

6:                                                ; preds = %4
  %7 = getelementptr inbounds nuw i8, ptr %0, i64 144
  %8 = load ptr, ptr %7, align 8, !tbaa !66
  %9 = icmp eq ptr %8, null
  br i1 %9, label %ecp_modp.exit, label %10

10:                                               ; preds = %6
  %11 = getelementptr inbounds nuw i8, ptr %1, i64 8
  %12 = load i16, ptr %11, align 8, !tbaa !63
  %13 = icmp slt i16 %12, 0
  br i1 %13, label %14, label %16

14:                                               ; preds = %10
  %15 = tail call i32 @mbedtls_mpi_cmp_int(ptr noundef nonnull %1, i64 noundef 0) #21
  %.not.i = icmp eq i32 %15, 0
  br i1 %.not.i, label %16, label %ecp_modp.exit.thread

16:                                               ; preds = %14, %10
  %17 = tail call i64 @mbedtls_mpi_bitlen(ptr noundef nonnull %1) #21
  %18 = getelementptr inbounds nuw i8, ptr %0, i64 120
  %19 = load i64, ptr %18, align 8, !tbaa !67
  %20 = shl i64 %19, 1
  %21 = icmp ugt i64 %17, %20
  br i1 %21, label %ecp_modp.exit.thread, label %22

22:                                               ; preds = %16
  %23 = load ptr, ptr %7, align 8, !tbaa !66
  %24 = tail call i32 %23(ptr noundef nonnull %1) #21
  %.not28.i = icmp eq i32 %24, 0
  br i1 %.not28.i, label %.preheader.i, label %ecp_modp.exit.thread

.preheader.i:                                     ; preds = %22
  %25 = getelementptr inbounds nuw i8, ptr %0, i64 8
  br label %26

26:                                               ; preds = %31, %.preheader.i
  %27 = load i16, ptr %11, align 8, !tbaa !63
  %28 = icmp slt i16 %27, 0
  br i1 %28, label %29, label %.critedge.i.preheader

.critedge.i.preheader:                            ; preds = %29, %26
  br label %.critedge.i

29:                                               ; preds = %26
  %30 = tail call i32 @mbedtls_mpi_cmp_int(ptr noundef nonnull %1, i64 noundef 0) #21
  %.not29.i = icmp eq i32 %30, 0
  br i1 %.not29.i, label %.critedge.i.preheader, label %31

31:                                               ; preds = %29
  %32 = tail call i32 @mbedtls_mpi_add_mpi(ptr noundef nonnull %1, ptr noundef nonnull %1, ptr noundef nonnull %25) #21
  %.not31.i = icmp eq i32 %32, 0
  br i1 %.not31.i, label %26, label %ecp_modp.exit.thread, !llvm.loop !68

.critedge.i:                                      ; preds = %.critedge.i.preheader, %35
  %33 = tail call i32 @mbedtls_mpi_cmp_mpi(ptr noundef nonnull %1, ptr noundef nonnull %25) #21
  %34 = icmp sgt i32 %33, -1
  br i1 %34, label %35, label %ecp_modp.exit.thread10

35:                                               ; preds = %.critedge.i
  %36 = tail call i32 @mbedtls_mpi_sub_abs(ptr noundef nonnull %1, ptr noundef nonnull %1, ptr noundef nonnull %25) #21
  %.not30.i = icmp eq i32 %36, 0
  br i1 %.not30.i, label %.critedge.i, label %ecp_modp.exit.thread, !llvm.loop !69

ecp_modp.exit:                                    ; preds = %6
  %37 = getelementptr inbounds nuw i8, ptr %0, i64 8
  %38 = tail call i32 @mbedtls_mpi_mod_mpi(ptr noundef %1, ptr noundef %1, ptr noundef nonnull %37) #21
  %.not7 = icmp eq i32 %38, 0
  br i1 %.not7, label %ecp_modp.exit.thread10, label %ecp_modp.exit.thread

ecp_modp.exit.thread10:                           ; preds = %.critedge.i, %ecp_modp.exit
  %39 = load i64, ptr @mul_count, align 8, !tbaa !33
  %40 = add i64 %39, 1
  store i64 %40, ptr @mul_count, align 8, !tbaa !33
  br label %ecp_modp.exit.thread

ecp_modp.exit.thread:                             ; preds = %31, %35, %22, %14, %16, %ecp_modp.exit, %4, %ecp_modp.exit.thread10
  %.0 = phi i32 [ %5, %4 ], [ %38, %ecp_modp.exit ], [ 0, %ecp_modp.exit.thread10 ], [ %24, %22 ], [ -20352, %14 ], [ -20352, %16 ], [ %36, %35 ], [ %32, %31 ]
  ret i32 %.0
}